; Function Attrs: mustprogress nofree norecurse nounwind uwtable
define hidden void @_ZN23G1FullGCCompactionPoint6updateEv(ptr nocapture noundef nonnull readonly align 8 dereferenceable(56) %0) local_unnamed_addr #2 align 2 {
  %2 = getelementptr inbounds i8, ptr %0, i64 8
  %3 = load ptr, ptr %2, align 8
  %.not = icmp eq ptr %3, null
  br i1 %.not, label %14, label %4

4:                                                ; preds = %1
  %5 = load ptr, ptr %0, align 8
  %6 = getelementptr inbounds i8, ptr %0, i64 16
  %7 = load ptr, ptr %6, align 8
  %8 = getelementptr inbounds i8, ptr %5, i64 816
  %9 = load ptr, ptr %8, align 8
  %10 = getelementptr inbounds i8, ptr %3, i64 48
  %11 = load i32, ptr %10, align 8
  %12 = zext i32 %11 to i64
  %13 = getelementptr inbounds ptr, ptr %9, i64 %12
  store volatile ptr %7, ptr %13, align 8
  br label %14

14:                                               ; preds = %4, %1
  ret void
}